; Function Attrs: nounwind uwtable
define range(i32 0, 2) i32 @OSSL_CMP_ITAV_get0_rootCaCert(ptr noundef readonly captures(address_is_null) %0, ptr noundef writeonly captures(address_is_null) %1) local_unnamed_addr #1 {
  %3 = icmp eq ptr %0, null
  %4 = icmp eq ptr %1, null
  %or.cond = or i1 %3, %4
  br i1 %or.cond, label %5, label %6

5:                                                ; preds = %2
  tail call void @ERR_new() #6
  tail call void @ERR_set_debug(ptr noundef nonnull @.str.12, i32 noundef 311, ptr noundef nonnull @__func__.OSSL_CMP_ITAV_get0_rootCaCert) #6
  tail call void (i32, i32, ptr, ...) @ERR_set_error(i32 noundef 58, i32 noundef 786690, ptr noundef null) #6
  br label %13

6:                                                ; preds = %2
  %7 = load ptr, ptr %0, align 8, !tbaa !3
  %8 = tail call i32 @OBJ_obj2nid(ptr noundef %7) #6
  %.not = icmp eq i32 %8, 1254
  br i1 %.not, label %10, label %9

9:                                                ; preds = %6
  tail call void @ERR_new() #6
  tail call void @ERR_set_debug(ptr noundef nonnull @.str.12, i32 noundef 315, ptr noundef nonnull @__func__.OSSL_CMP_ITAV_get0_rootCaCert) #6
  tail call void (i32, i32, ptr, ...) @ERR_set_error(i32 noundef 58, i32 noundef 524550, ptr noundef null) #6
  br label %13

10:                                               ; preds = %6
  %11 = getelementptr inbounds nuw i8, ptr %0, i64 8
  %12 = load ptr, ptr %11, align 8, !tbaa !9
  store ptr %12, ptr %1, align 8, !tbaa !16
  br label %13

13:                                               ; preds = %10, %9, %5
  %.0 = phi i32 [ 0, %5 ], [ 0, %9 ], [ 1, %10 ]
  ret i32 %.0
}